target datalayout = "e-m:e-p270:32:32-p271:32:32-p272:64:64-i64:64-i128:128-f80:128-n8:16:32:64-S128"
target triple = "x86_64-pc-linux-gnu"

%struct._zend_llist = type { ptr, ptr, i64, i64, ptr, i8, ptr }
%struct._zend_llist_element = type { ptr, ptr, [1 x i8] }

@zend_observer_fiber_destroy = internal global %struct._zend_llist zeroinitializer, align 8

; Function Attrs: nounwind uwtable
define dso_local void @zend_observer_fiber_destroy_notify(ptr noundef %0) #0 {
  %2 = alloca ptr, align 8
  %3 = alloca ptr, align 8
  %4 = alloca ptr, align 8
  store ptr %0, ptr %2, align 8, !tbaa !96
  call void @llvm.lifetime.start.p0(i64 8, ptr %3) #8
  call void @llvm.lifetime.start.p0(i64 8, ptr %4) #8
  %5 = load ptr, ptr @zend_observer_fiber_destroy, align 8, !tbaa !83
  store ptr %5, ptr %3, align 8, !tbaa !84
  br label %6

6:                                                ; preds = %16, %1
  %7 = load ptr, ptr %3, align 8, !tbaa !84
  %8 = icmp ne ptr %7, null
  br i1 %8, label %9, label %20

9:                                                ; preds = %6
  %10 = load ptr, ptr %3, align 8, !tbaa !84
  %11 = getelementptr inbounds nuw %struct._zend_llist_element, ptr %10, i32 0, i32 2
  %12 = getelementptr inbounds [1 x i8], ptr %11, i64 0, i64 0
  %13 = load ptr, ptr %12, align 8, !tbaa !4
  store ptr %13, ptr %4, align 8, !tbaa !4
  %14 = load ptr, ptr %4, align 8, !tbaa !4
  %15 = load ptr, ptr %2, align 8, !tbaa !96
  call void %14(ptr noundef %15)
  br label %16

16:                                               ; preds = %9
  %17 = load ptr, ptr %3, align 8, !tbaa !84
  %18 = getelementptr inbounds nuw %struct._zend_llist_element, ptr %17, i32 0, i32 0
  %19 = load ptr, ptr %18, align 8, !tbaa !88
  store ptr %19, ptr %3, align 8, !tbaa !84
  br label %6

20:                                               ; preds = %6
  call void @llvm.lifetime.end.p0(i64 8, ptr %4) #8
  call void @llvm.lifetime.end.p0(i64 8, ptr %3) #8
  ret void
}