; Function Attrs: nounwind uwtable
define dso_local void @zend_observer_fiber_destroy_notify(ptr noundef %0) local_unnamed_addr #0 {
  %.05 = load ptr, ptr @zend_observer_fiber_destroy, align 8, !tbaa !72
  %.not6 = icmp eq ptr %.05, null
  br i1 %.not6, label %._crit_edge, label %.lr.ph

.lr.ph:                                           ; preds = %1, %.lr.ph
  %.07 = phi ptr [ %.0, %.lr.ph ], [ %.05, %1 ]
  %2 = getelementptr inbounds nuw i8, ptr %.07, i64 16
  %3 = load ptr, ptr %2, align 8, !tbaa !4
  tail call void %3(ptr noundef %0) #8
  %.0 = load ptr, ptr %.07, align 8, !tbaa !72
  %.not = icmp eq ptr %.0, null
  br i1 %.not, label %._crit_edge, label %.lr.ph

._crit_edge:                                      ; preds = %.lr.ph, %1
  ret void
}